target datalayout = "e-m:e-p270:32:32-p271:32:32-p272:64:64-i64:64-i128:128-f80:128-n8:16:32:64-S128"
target triple = "x86_64-pc-linux-gnu"

@rawerrorstream = global ptr null, align 8
@stderr = external global ptr, align 8
@.str.36 = private unnamed_addr constant [23 x i8] c"closing rawerrorstream\00", align 1
@.str.43 = private unnamed_addr constant [3 x i8] c"wb\00", align 1
@.str.44 = private unnamed_addr constant [2 x i8] c"w\00", align 1

; Function Attrs: nounwind uwtable
define i32 @h5tools_set_error_file(ptr noundef %0, i32 noundef %1) #0 {
  %3 = alloca ptr, align 8
  %4 = alloca i32, align 4
  %5 = alloca i32, align 4
  %6 = alloca ptr, align 8
  store ptr %0, ptr %3, align 8, !tbaa !13
  store i32 %1, ptr %4, align 4, !tbaa !3
  call void @llvm.lifetime.start.p0(i64 4, ptr %5) #10
  store i32 -1, ptr %5, align 4, !tbaa !3
  call void @llvm.lifetime.start.p0(i64 8, ptr %6) #10
  %7 = load ptr, ptr @rawerrorstream, align 8, !tbaa !9
  %8 = icmp ne ptr %7, null
  br i1 %8, label %9, label %20

9:                                                ; preds = %2
  %10 = load ptr, ptr @rawerrorstream, align 8, !tbaa !9
  %11 = load ptr, ptr @stderr, align 8, !tbaa !9
  %12 = icmp ne ptr %10, %11
  br i1 %12, label %13, label %20

13:                                               ; preds = %9
  %14 = load ptr, ptr @rawerrorstream, align 8, !tbaa !9
  %15 = call i32 @fclose(ptr noundef %14)
  %16 = icmp ne i32 %15, 0
  br i1 %16, label %17, label %18

17:                                               ; preds = %13
  call void @perror(ptr noundef @.str.36)
  br label %19

18:                                               ; preds = %13
  store ptr null, ptr @rawerrorstream, align 8, !tbaa !9
  br label %19

19:                                               ; preds = %18, %17
  br label %20

20:                                               ; preds = %19, %9, %2
  %21 = load ptr, ptr %3, align 8, !tbaa !13
  %22 = icmp ne ptr %21, null
  br i1 %22, label %23, label %41

23:                                               ; preds = %20
  %24 = load i32, ptr %4, align 4, !tbaa !3
  %25 = icmp ne i32 %24, 0
  br i1 %25, label %26, label %33

26:                                               ; preds = %23
  %27 = load ptr, ptr %3, align 8, !tbaa !13
  %28 = call noalias ptr @fopen64(ptr noundef %27, ptr noundef @.str.43)
  store ptr %28, ptr %6, align 8, !tbaa !9
  %29 = icmp ne ptr %28, null
  br i1 %29, label %30, label %32

30:                                               ; preds = %26
  %31 = load ptr, ptr %6, align 8, !tbaa !9
  store ptr %31, ptr @rawerrorstream, align 8, !tbaa !9
  store i32 0, ptr %5, align 4, !tbaa !3
  br label %32

32:                                               ; preds = %30, %26
  br label %40

33:                                               ; preds = %23
  %34 = load ptr, ptr %3, align 8, !tbaa !13
  %35 = call noalias ptr @fopen64(ptr noundef %34, ptr noundef @.str.44)
  store ptr %35, ptr %6, align 8, !tbaa !9
  %36 = icmp ne ptr %35, null
  br i1 %36, label %37, label %39

37:                                               ; preds = %33
  %38 = load ptr, ptr %6, align 8, !tbaa !9
  store ptr %38, ptr @rawerrorstream, align 8, !tbaa !9
  store i32 0, ptr %5, align 4, !tbaa !3
  br label %39

39:                                               ; preds = %37, %33
  br label %40

40:                                               ; preds = %39, %32
  br label %42

41:                                               ; preds = %20
  store ptr null, ptr @rawerrorstream, align 8, !tbaa !9
  store i32 0, ptr %5, align 4, !tbaa !3
  br label %42

42:                                               ; preds = %41, %40
  %43 = load i32, ptr %5, align 4, !tbaa !3
  call void @llvm.lifetime.end.p0(i64 8, ptr %6) #10
  call void @llvm.lifetime.end.p0(i64 4, ptr %5) #10
  ret i32 %43
}